; Function Attrs: nounwind uwtable
define dso_local void @uv__fs_event_close(ptr noundef captures(none) %0) local_unnamed_addr #0 {
  %2 = getelementptr inbounds nuw i8, ptr %0, i64 88
  %3 = load i32, ptr %2, align 8, !tbaa !36
  %4 = and i32 %3, 4
  %.not.i = icmp eq i32 %4, 0
  br i1 %.not.i, label %uv_fs_event_stop.exit, label %5

5:                                                ; preds = %1
  %6 = getelementptr inbounds nuw i8, ptr %0, i64 8
  %7 = load ptr, ptr %6, align 8, !tbaa !37
  %8 = getelementptr inbounds nuw i8, ptr %0, i64 128
  %9 = load i32, ptr %8, align 8, !tbaa !38
  %10 = getelementptr i8, ptr %7, i64 832
  %.val.i = load ptr, ptr %10, align 8, !tbaa !21
  %.not2.i.i.i = icmp eq ptr %.val.i, null
  br i1 %.not2.i.i.i, label %.loopexit.i, label %.lr.ph.i.i.i

.lr.ph.i.i.i:                                     ; preds = %5, %16
  %.093.i.i.i = phi ptr [ %.09.i.i.i, %16 ], [ %.val.i, %5 ]
  %11 = getelementptr i8, ptr %.093.i.i.i, i64 64
  %.09.val.i.i.i = load i32, ptr %11, align 8, !tbaa !39
  %12 = icmp slt i32 %9, %.09.val.i.i.i
  br i1 %12, label %16, label %13

13:                                               ; preds = %.lr.ph.i.i.i
  %.not11.i.i.i = icmp eq i32 %9, %.09.val.i.i.i
  br i1 %.not11.i.i.i, label %.loopexit.i, label %14

14:                                               ; preds = %13
  %15 = getelementptr inbounds nuw i8, ptr %.093.i.i.i, i64 8
  br label %16

16:                                               ; preds = %14, %.lr.ph.i.i.i
  %.1.in.i.i.i = phi ptr [ %15, %14 ], [ %.093.i.i.i, %.lr.ph.i.i.i ]
  %.09.i.i.i = load ptr, ptr %.1.in.i.i.i, align 8, !tbaa !21
  %.not.i.i.i = icmp eq ptr %.09.i.i.i, null
  br i1 %.not.i.i.i, label %.loopexit.i, label %.lr.ph.i.i.i, !llvm.loop !40

.loopexit.i:                                      ; preds = %16, %13, %5
  %.09.lcssa.i.i.i = phi ptr [ null, %5 ], [ %.093.i.i.i, %13 ], [ null, %16 ]
  store i32 -1, ptr %8, align 8, !tbaa !38
  %17 = getelementptr inbounds nuw i8, ptr %0, i64 96
  store ptr null, ptr %17, align 8, !tbaa !34
  %18 = and i32 %3, -5
  store i32 %18, ptr %2, align 8, !tbaa !36
  %19 = and i32 %3, 8
  %.not15.i = icmp eq i32 %19, 0
  br i1 %.not15.i, label %24, label %20

20:                                               ; preds = %.loopexit.i
  %21 = getelementptr inbounds nuw i8, ptr %7, i64 8
  %22 = load i32, ptr %21, align 8, !tbaa !41
  %23 = add i32 %22, -1
  store i32 %23, ptr %21, align 8, !tbaa !41
  br label %24

24:                                               ; preds = %20, %.loopexit.i
  %25 = getelementptr inbounds nuw i8, ptr %0, i64 112
  %26 = load ptr, ptr %25, align 8, !tbaa !4
  %27 = getelementptr inbounds nuw i8, ptr %0, i64 120
  %28 = load ptr, ptr %27, align 8, !tbaa !4
  store ptr %26, ptr %28, align 8, !tbaa !4
  %29 = load ptr, ptr %27, align 8, !tbaa !4
  %30 = getelementptr inbounds nuw i8, ptr %26, i64 8
  store ptr %29, ptr %30, align 8, !tbaa !4
  %31 = load ptr, ptr %6, align 8, !tbaa !37
  tail call fastcc void @maybe_free_watcher_list(ptr noundef %.09.lcssa.i.i.i, ptr noundef %31)
  br label %uv_fs_event_stop.exit

uv_fs_event_stop.exit:                            ; preds = %1, %24
  ret void
}